(lp1
I0
aF0.49784887359198998
aF0.49784887359198998
aF0.49784887359198998
aF0.49784887359198998
aF0.49784887359198998
aF0.49784887359198998
aF0.49784887359198998
aF0.49788798498122655
aF0.49788798498122655
aF0.49788798498122655
aF0.49788798498122655
aF0.49788798498122655
aF0.49788798498122655
aF0.49788798498122655
aF0.49792709637046306
aF0.49792709637046306
aF0.49808354192740928
aF0.49823998748435544
aF0.49812265331664579
aF0.4983964330413016
aF0.49843554443053817
aF0.49851376720901125
aF0.49851376720901125
aF0.49859198998748433
aF0.49843554443053817
aF0.4986311013767209
aF0.49902221526908636
aF0.49929599499374216
aF0.49949155193992489
aF0.49964799749687111
aF0.49992177722152692
aF0.49996088861076343
aF0.50011733416770965
aF0.5002346683354193
aF0.5002346683354193
aF0.50011733416770965
aF0.5002346683354193
aF0.5007431163954944
aF0.50070400500625778
aF0.50082133917396743
aF0.50070400500625778
aF0.50070400500625778
aF0.50093867334167708
aF0.50105600750938672
aF0.50093867334167708
aF0.50113423028785986
aF0.50168178973717148
aF0.5017600125156445
aF0.50172090112640799
aF0.50152534418022532
aF0.50156445556946183
aF0.50195556946182729
aF0.50238579474342926
aF0.5022293491864831
aF0.5024640175219024
aF0.50242490613266588
aF0.50265957446808507
aF0.50262046307884856
aF0.5024640175219024
aF0.50254224030037542
aF0.50262046307884856
aF0.5029724655819775
aF0.50293335419274088
aF0.50301157697121401
aF0.50308979974968715
aF0.50312891113892366
aF0.50344180225281598
aF0.50355913642052563
aF0.50379380475594493
aF0.50375469336670842
aF0.50387202753441807
aF0.50340269086357947
aF0.50332446808510634
aF0.50324624530663331
aF0.50312891113892366
aF0.50301157697121401
aF0.50312891113892366
aF0.50348091364205261
aF0.50348091364205261
aF0.50324624530663331
aF0.50391113892365458
aF0.50414580725907387
aF0.50398936170212771
aF0.50441958698372968
aF0.50430225281602004
aF0.5044586983729662
aF0.50449780976220271
aF0.50434136420525655
aF0.50438047559449317
aF0.50414580725907387
aF0.50402847309136423
aF0.50391113892365458
aF0.50375469336670842
aF0.50387202753441807
aF0.50375469336670842
aF0.50391113892365458
aF0.50402847309136423
aF0.50391113892365458
aF0.50391113892365458
a.